; Function Attrs: nounwind uwtable
define ptr @Abc_NtkCovDerive(ptr noundef readnone captures(none) %0, ptr noundef %1) local_unnamed_addr #0 {
  %3 = tail call ptr @Abc_NtkStartFrom(ptr noundef %1, i32 noundef 2, i32 noundef 1) #7
  %4 = getelementptr i8, ptr %1, i64 64
  %.val19 = load ptr, ptr %4, align 8, !tbaa !54
  %5 = getelementptr i8, ptr %.val19, i64 4
  %.val.val20 = load i32, ptr %5, align 4, !tbaa !55
  %6 = icmp sgt i32 %.val.val20, 0
  br i1 %6, label %.lr.ph, label %.critedge

.lr.ph:                                           ; preds = %2, %.lr.ph
  %indvars.iv = phi i64 [ %indvars.iv.next, %.lr.ph ], [ 0, %2 ]
  %.val22 = phi ptr [ %.val, %.lr.ph ], [ %.val19, %2 ]
  %7 = getelementptr i8, ptr %.val22, i64 8
  %.val16.val = load ptr, ptr %7, align 8, !tbaa !31
  %8 = getelementptr inbounds nuw ptr, ptr %.val16.val, i64 %indvars.iv
  %9 = load ptr, ptr %8, align 8, !tbaa !33
  %.val17 = load ptr, ptr %9, align 8, !tbaa !13
  %10 = getelementptr i8, ptr %9, i64 32
  %.val18 = load ptr, ptr %10, align 8, !tbaa !56
  %11 = getelementptr i8, ptr %.val17, i64 32
  %.val17.val = load ptr, ptr %11, align 8, !tbaa !17
  %.val18.val = load i32, ptr %.val18, align 4, !tbaa !12
  %12 = getelementptr i8, ptr %.val17.val, i64 8
  %.val17.val.val = load ptr, ptr %12, align 8, !tbaa !31
  %13 = sext i32 %.val18.val to i64
  %14 = getelementptr inbounds ptr, ptr %.val17.val.val, i64 %13
  %15 = load ptr, ptr %14, align 8, !tbaa !33
  %16 = tail call ptr @Abc_NtkCovDeriveNode_rec(ptr noundef %0, ptr noundef %3, ptr noundef %15, i32 noundef 0)
  %indvars.iv.next = add nuw nsw i64 %indvars.iv, 1
  %.val = load ptr, ptr %4, align 8, !tbaa !54
  %17 = getelementptr i8, ptr %.val, i64 4
  %.val.val = load i32, ptr %17, align 4, !tbaa !55
  %18 = sext i32 %.val.val to i64
  %19 = icmp slt i64 %indvars.iv.next, %18
  br i1 %19, label %.lr.ph, label %.critedge, !llvm.loop !57

.critedge:                                        ; preds = %.lr.ph, %2
  tail call void @Abc_NtkFinalize(ptr noundef nonnull %1, ptr noundef %3) #7
  %20 = tail call i32 @Abc_NtkLogicMakeSimpleCos(ptr noundef %3, i32 noundef 1) #7
  %21 = tail call i32 @Abc_NtkCheck(ptr noundef %3) #7
  %.not = icmp eq i32 %21, 0
  br i1 %.not, label %22, label %23

22:                                               ; preds = %.critedge
  %puts = tail call i32 @puts(ptr nonnull dereferenceable(1) @str.2)
  tail call void @Abc_NtkDelete(ptr noundef %3) #7
  br label %23

23:                                               ; preds = %.critedge, %22
  %.015 = phi ptr [ null, %22 ], [ %3, %.critedge ]
  ret ptr %.015
}